target datalayout = "e-m:e-p270:32:32-p271:32:32-p272:64:64-i64:64-i128:128-f80:128-n8:16:32:64-S128"
target triple = "x86_64-unknown-linux-gnu"

%"class.cvc5::internal::theory::arith::linear::RaiseConflict" = type { ptr }
%"class.cvc5::internal::theory::arith::linear::TempVarMalloc" = type { %"class.cvc5::internal::theory::arith::linear::ArithVarMalloc", ptr }
%"class.cvc5::internal::theory::arith::linear::ArithVarMalloc" = type { ptr }
%"class.cvc5::internal::theory::arith::linear::SumOfInfeasibilitiesSPD" = type { %"class.cvc5::internal::theory::arith::linear::SimplexDecisionProcedure", i32, i32, i32, i32, %"class.cvc5::internal::DenseMap.4", %"class.std::vector", %"class.cvc5::internal::DenseSet", %"class.cvc5::internal::DenseSet", %"class.std::vector", %"class.std::vector", %"class.std::unordered_map", %"class.cvc5::internal::theory::arith::linear::SumOfInfeasibilitiesSPD::Statistics" }
%"class.cvc5::internal::theory::arith::linear::SimplexDecisionProcedure" = type { %"class.cvc5::internal::EnvObj", i32, %"class.cvc5::internal::DenseSet", i32, ptr, ptr, ptr, ptr, i32, %"class.cvc5::internal::theory::arith::linear::RaiseConflict", ptr, %"class.cvc5::internal::theory::arith::linear::TempVarMalloc", i32, %"class.cvc5::internal::Rational", %"class.cvc5::internal::Rational", %"class.cvc5::internal::Rational", i64 }
%"class.cvc5::internal::EnvObj" = type { ptr, ptr }
%"class.cvc5::internal::Rational" = type { %class.__gmp_expr }
%class.__gmp_expr = type { [1 x %struct.__mpq_struct] }
%struct.__mpq_struct = type { %struct.__mpz_struct, %struct.__mpz_struct }
%struct.__mpz_struct = type { i32, i32, ptr }
%"class.cvc5::internal::DenseMap.4" = type { %"class.std::vector", %"class.std::vector", %"class.std::vector" }
%"class.cvc5::internal::DenseSet" = type { %"class.cvc5::internal::DenseMap" }
%"class.cvc5::internal::DenseMap" = type { %"class.std::vector", %"class.std::vector", %"class.std::vector.0" }
%"class.std::vector.0" = type { %"struct.std::_Bvector_base" }
%"struct.std::_Bvector_base" = type { %"struct.std::_Bvector_base<std::allocator<bool>>::_Bvector_impl" }
%"struct.std::_Bvector_base<std::allocator<bool>>::_Bvector_impl" = type { %"struct.std::_Bvector_base<std::allocator<bool>>::_Bvector_impl_data" }
%"struct.std::_Bvector_base<std::allocator<bool>>::_Bvector_impl_data" = type { %"struct.std::_Bit_iterator", %"struct.std::_Bit_iterator", ptr }
%"struct.std::_Bit_iterator" = type { %"struct.std::_Bit_iterator_base.base", [4 x i8] }
%"struct.std::_Bit_iterator_base.base" = type <{ ptr, i32 }>
%"class.std::vector" = type { %"struct.std::_Vector_base" }
%"struct.std::_Vector_base" = type { %"struct.std::_Vector_base<unsigned int, std::allocator<unsigned int>>::_Vector_impl" }
%"struct.std::_Vector_base<unsigned int, std::allocator<unsigned int>>::_Vector_impl" = type { %"struct.std::_Vector_base<unsigned int, std::allocator<unsigned int>>::_Vector_impl_data" }
%"struct.std::_Vector_base<unsigned int, std::allocator<unsigned int>>::_Vector_impl_data" = type { ptr, ptr, ptr }
%"class.std::unordered_map" = type { %"class.std::_Hashtable" }
%"class.std::_Hashtable" = type { ptr, i64, %"struct.std::__detail::_Hash_node_base", i64, %"struct.std::__detail::_Prime_rehash_policy", ptr }
%"struct.std::__detail::_Hash_node_base" = type { ptr }
%"struct.std::__detail::_Prime_rehash_policy" = type { float, i64 }
%"class.cvc5::internal::theory::arith::linear::SumOfInfeasibilitiesSPD::Statistics" = type { %"class.cvc5::internal::TimerStat", %"class.cvc5::internal::IntStat", %"class.cvc5::internal::IntStat", %"class.cvc5::internal::IntStat", %"class.cvc5::internal::IntStat", %"class.cvc5::internal::IntStat", %"class.cvc5::internal::IntStat", %"class.cvc5::internal::IntStat", %"class.cvc5::internal::TimerStat", %"class.cvc5::internal::TimerStat", %"class.cvc5::internal::TimerStat", %"class.cvc5::internal::TimerStat", %"class.cvc5::internal::ReferenceStat" }
%"class.cvc5::internal::IntStat" = type { %"class.cvc5::internal::ValueStat" }
%"class.cvc5::internal::ValueStat" = type { ptr }
%"class.cvc5::internal::TimerStat" = type { ptr }
%"class.cvc5::internal::ReferenceStat" = type { ptr }

@_ZN4cvc58internal6theory5arith6linear17ARITHVAR_SENTINELE = external constant i32, align 4

; Function Attrs: mustprogress nounwind uwtable
define linkonce_odr hidden noundef i32 @_ZNSt14numeric_limitsIiE3maxEv() #6 comdat align 2 {
entry:
  ret i32 2147483647
}

; Function Attrs: mustprogress nounwind uwtable
define linkonce_odr hidden noundef i64 @_ZNKSt6vectorIjSaIjEE4sizeEv(ptr noundef nonnull align 8 dereferenceable(24) %this) #6 comdat align 2 {
entry:
  %this.addr = alloca ptr, align 8
  store ptr %this, ptr %this.addr, align 8
  %this1 = load ptr, ptr %this.addr, align 8
  %_M_impl = getelementptr inbounds %"struct.std::_Vector_base", ptr %this1, i32 0, i32 0
  %_M_finish = getelementptr inbounds %"struct.std::_Vector_base<unsigned int, std::allocator<unsigned int>>::_Vector_impl_data", ptr %_M_impl, i32 0, i32 1
  %0 = load ptr, ptr %_M_finish, align 8
  %_M_impl2 = getelementptr inbounds %"struct.std::_Vector_base", ptr %this1, i32 0, i32 0
  %_M_start = getelementptr inbounds %"struct.std::_Vector_base<unsigned int, std::allocator<unsigned int>>::_Vector_impl_data", ptr %_M_impl2, i32 0, i32 0
  %1 = load ptr, ptr %_M_start, align 8
  %sub.ptr.lhs.cast = ptrtoint ptr %0 to i64
  %sub.ptr.rhs.cast = ptrtoint ptr %1 to i64
  %sub.ptr.sub = sub i64 %sub.ptr.lhs.cast, %sub.ptr.rhs.cast
  %sub.ptr.div = sdiv exact i64 %sub.ptr.sub, 4
  ret i64 %sub.ptr.div
}

; Function Attrs: mustprogress uwtable
define hidden noundef i32 @_ZN4cvc58internal6theory5arith6linear23SumOfInfeasibilitiesSPD6trySetERKSt6vectorIjSaIjEE(ptr noundef nonnull align 8 dereferenceable(800) %this, ptr noundef nonnull align 8 dereferenceable(24) %set) #4 align 2 {
entry:
  %this.addr = alloca ptr, align 8
  %set.addr = alloca ptr, align 8
  %success = alloca i8, align 1
  store ptr %this, ptr %this.addr, align 8
  store ptr %set, ptr %set.addr, align 8
  %this1 = load ptr, ptr %this.addr, align 8
  store i8 0, ptr %success, align 1
  %0 = load ptr, ptr %set.addr, align 8
  %call = call noundef i64 @_ZNKSt6vectorIjSaIjEE4sizeEv(ptr noundef nonnull align 8 dereferenceable(24) %0) #3
  %cmp = icmp uge i64 %call, 2
  br i1 %cmp, label %if.then, label %if.end

if.then:                                          ; preds = %entry
  %d_statistics = getelementptr inbounds %"class.cvc5::internal::theory::arith::linear::SumOfInfeasibilitiesSPD", ptr %this1, i32 0, i32 12
  %d_soiConflictMinimization = getelementptr inbounds %"class.cvc5::internal::theory::arith::linear::SumOfInfeasibilitiesSPD::Statistics", ptr %d_statistics, i32 0, i32 10
  %1 = load ptr, ptr %set.addr, align 8
  %call2 = call noundef i32 @_ZN4cvc58internal6theory5arith6linear24SimplexDecisionProcedure29constructInfeasiblityFunctionERNS0_9TimerStatERKSt6vectorIjSaIjEE(ptr noundef nonnull align 8 dereferenceable(304) %this1, ptr noundef nonnull align 8 dereferenceable(8) %d_soiConflictMinimization, ptr noundef nonnull align 8 dereferenceable(24) %1)
  %d_soiVar = getelementptr inbounds %"class.cvc5::internal::theory::arith::linear::SumOfInfeasibilitiesSPD", ptr %this1, i32 0, i32 1
  store i32 %call2, ptr %d_soiVar, align 8
  %d_linEq = getelementptr inbounds %"class.cvc5::internal::theory::arith::linear::SimplexDecisionProcedure", ptr %this1, i32 0, i32 4
  %2 = load ptr, ptr %d_linEq, align 8
  %d_soiVar3 = getelementptr inbounds %"class.cvc5::internal::theory::arith::linear::SumOfInfeasibilitiesSPD", ptr %this1, i32 0, i32 1
  %3 = load i32, ptr %d_soiVar3, align 8
  %call4 = call noundef ptr @_ZNK4cvc58internal6theory5arith6linear20LinearEqualityModule16selectSlackEntryEjb(ptr noundef nonnull align 8 dereferenceable(456) %2, i32 noundef %3, i1 noundef zeroext false)
  %cmp5 = icmp eq ptr %call4, null
  %frombool = zext i1 %cmp5 to i8
  store i8 %frombool, ptr %success, align 1
  %d_statistics6 = getelementptr inbounds %"class.cvc5::internal::theory::arith::linear::SumOfInfeasibilitiesSPD", ptr %this1, i32 0, i32 12
  %d_soiConflictMinimization7 = getelementptr inbounds %"class.cvc5::internal::theory::arith::linear::SumOfInfeasibilitiesSPD::Statistics", ptr %d_statistics6, i32 0, i32 10
  %d_soiVar8 = getelementptr inbounds %"class.cvc5::internal::theory::arith::linear::SumOfInfeasibilitiesSPD", ptr %this1, i32 0, i32 1
  %4 = load i32, ptr %d_soiVar8, align 8
  call void @_ZN4cvc58internal6theory5arith6linear24SimplexDecisionProcedure28tearDownInfeasiblityFunctionERNS0_9TimerStatEj(ptr noundef nonnull align 8 dereferenceable(304) %this1, ptr noundef nonnull align 8 dereferenceable(8) %d_soiConflictMinimization7, i32 noundef %4)
  %5 = load i32, ptr @_ZN4cvc58internal6theory5arith6linear17ARITHVAR_SENTINELE, align 4
  %d_soiVar9 = getelementptr inbounds %"class.cvc5::internal::theory::arith::linear::SumOfInfeasibilitiesSPD", ptr %this1, i32 0, i32 1
  store i32 %5, ptr %d_soiVar9, align 8
  br label %if.end

if.end:                                           ; preds = %if.then, %entry
  %6 = load i8, ptr %success, align 1
  %tobool = trunc i8 %6 to i1
  br i1 %tobool, label %cond.true, label %cond.false

cond.true:                                        ; preds = %if.end
  %7 = load ptr, ptr %set.addr, align 8
  %call10 = call noundef i64 @_ZNKSt6vectorIjSaIjEE4sizeEv(ptr noundef nonnull align 8 dereferenceable(24) %7) #3
  br label %cond.end

cond.false:                                       ; preds = %if.end
  %call11 = call noundef i32 @_ZNSt14numeric_limitsIiE3maxEv() #3
  %conv = sext i32 %call11 to i64
  br label %cond.end

cond.end:                                         ; preds = %cond.false, %cond.true
  %cond = phi i64 [ %call10, %cond.true ], [ %conv, %cond.false ]
  %conv12 = trunc i64 %cond to i32
  ret i32 %conv12
}