; Function Attrs: mustprogress uwtable
define hidden noundef i32 @_ZN4cvc58internal6theory5arith6linear23SumOfInfeasibilitiesSPD6trySetERKSt6vectorIjSaIjEE(ptr noundef nonnull align 8 dereferenceable(800) %this, ptr noundef nonnull align 8 dereferenceable(24) %set) local_unnamed_addr #3 align 2 {
entry:
  %_M_finish.i = getelementptr inbounds i8, ptr %set, i64 8
  %0 = load ptr, ptr %_M_finish.i, align 8
  %1 = load ptr, ptr %set, align 8
  %sub.ptr.lhs.cast.i = ptrtoint ptr %0 to i64
  %sub.ptr.rhs.cast.i = ptrtoint ptr %1 to i64
  %sub.ptr.sub.i = sub i64 %sub.ptr.lhs.cast.i, %sub.ptr.rhs.cast.i
  %cmp = icmp ugt i64 %sub.ptr.sub.i, 4
  br i1 %cmp, label %if.then, label %cond.end

if.then:                                          ; preds = %entry
  %d_soiConflictMinimization = getelementptr inbounds i8, ptr %this, i64 776
  %call2 = tail call noundef i32 @_ZN4cvc58internal6theory5arith6linear24SimplexDecisionProcedure29constructInfeasiblityFunctionERNS0_9TimerStatERKSt6vectorIjSaIjEE(ptr noundef nonnull align 8 dereferenceable(304) %this, ptr noundef nonnull align 8 dereferenceable(8) %d_soiConflictMinimization, ptr noundef nonnull align 8 dereferenceable(24) %set)
  %d_soiVar = getelementptr inbounds i8, ptr %this, i64 304
  store i32 %call2, ptr %d_soiVar, align 8
  %d_linEq = getelementptr inbounds i8, ptr %this, i64 120
  %2 = load ptr, ptr %d_linEq, align 8
  %call4 = tail call noundef ptr @_ZNK4cvc58internal6theory5arith6linear20LinearEqualityModule16selectSlackEntryEjb(ptr noundef nonnull align 8 dereferenceable(456) %2, i32 noundef %call2, i1 noundef zeroext false)
  %cmp5 = icmp eq ptr %call4, null
  %3 = load i32, ptr %d_soiVar, align 8
  tail call void @_ZN4cvc58internal6theory5arith6linear24SimplexDecisionProcedure28tearDownInfeasiblityFunctionERNS0_9TimerStatEj(ptr noundef nonnull align 8 dereferenceable(304) %this, ptr noundef nonnull align 8 dereferenceable(8) %d_soiConflictMinimization, i32 noundef %3)
  %4 = load i32, ptr @_ZN4cvc58internal6theory5arith6linear17ARITHVAR_SENTINELE, align 4
  store i32 %4, ptr %d_soiVar, align 8
  br i1 %cmp5, label %cond.true, label %cond.end

cond.true:                                        ; preds = %if.then
  %5 = load ptr, ptr %_M_finish.i, align 8
  %6 = load ptr, ptr %set, align 8
  %sub.ptr.lhs.cast.i4 = ptrtoint ptr %5 to i64
  %sub.ptr.rhs.cast.i5 = ptrtoint ptr %6 to i64
  %sub.ptr.sub.i6 = sub i64 %sub.ptr.lhs.cast.i4, %sub.ptr.rhs.cast.i5
  %sub.ptr.div.i7 = lshr exact i64 %sub.ptr.sub.i6, 2
  %7 = trunc i64 %sub.ptr.div.i7 to i32
  br label %cond.end

cond.end:                                         ; preds = %if.then, %entry, %cond.true
  %cond = phi i32 [ %7, %cond.true ], [ 2147483647, %entry ], [ 2147483647, %if.then ]
  ret i32 %cond
}